target datalayout = "e-m:e-p270:32:32-p271:32:32-p272:64:64-i64:64-i128:128-f80:128-n8:16:32:64-S128"
target triple = "x86_64-pc-linux-gnu"

%"struct.WasmEdge::Host::WASI::FdHolder" = type <{ i32, i8, [3 x i8] }>
%"class.cxx20::unexpected" = type { i16 }
%"class.cxx20::expected.12" = type { %"struct.cxx20::detail::expected_move_assign_base.13" }
%"struct.cxx20::detail::expected_move_assign_base.13" = type { %"struct.cxx20::detail::expected_copy_assign_base.14" }
%"struct.cxx20::detail::expected_copy_assign_base.14" = type { %"struct.cxx20::detail::expected_move_base.15" }
%"struct.cxx20::detail::expected_move_base.15" = type { %"struct.cxx20::detail::expected_copy_base.16" }
%"struct.cxx20::detail::expected_copy_base.16" = type { %"struct.cxx20::detail::expected_operations_base.17" }
%"struct.cxx20::detail::expected_operations_base.17" = type { %"struct.cxx20::detail::expected_view_base.18" }
%"struct.cxx20::detail::expected_view_base.18" = type { %"struct.cxx20::detail::expected_storage_base.19" }
%"struct.cxx20::detail::expected_storage_base.19" = type { i8, %union.anon.20 }
%union.anon.20 = type { %"class.cxx20::unexpected" }

; Function Attrs: mustprogress nounwind uwtable
define linkonce_odr hidden void @_ZN5cxx2010unexpectedI14__wasi_errno_tEC2IS1_TnPNSt9enable_ifIXaaaa18is_constructible_vIS1_T_EntL_ZSt9is_same_vIS1_St10in_place_tEEntL_ZS6_IS1_S2_EEEvE4typeELPv0ELb1EEEOS5_(ptr noundef nonnull align 2 dereferenceable(2) %0, ptr noundef nonnull align 2 dereferenceable(2) %1) unnamed_addr #0 comdat align 2 {
  %3 = alloca ptr, align 8
  %4 = alloca ptr, align 8
  store ptr %0, ptr %3, align 8
  store ptr %1, ptr %4, align 8
  %5 = load ptr, ptr %3, align 8
  %6 = getelementptr inbounds %"class.cxx20::unexpected", ptr %5, i32 0, i32 0
  %7 = load ptr, ptr %4, align 8
  %8 = load i16, ptr %7, align 2
  store i16 %8, ptr %6, align 2
  ret void
}

; Function Attrs: mustprogress nounwind uwtable
define linkonce_odr hidden void @_ZN5cxx206detail21expected_storage_baseIv14__wasi_errno_tLb0ELb1EEC2IJS2_ETnPNSt9enable_ifIX18is_constructible_vIS2_DpT_EEvE4typeELPv0ELb1EEENS_10unexpect_tEDpOS6_(ptr noundef nonnull align 2 dereferenceable(4) %0, ptr noundef nonnull align 2 dereferenceable(2) %1) unnamed_addr #0 comdat align 2 {
  %3 = alloca ptr, align 8
  %4 = alloca ptr, align 8
  store ptr %0, ptr %3, align 8
  store ptr %1, ptr %4, align 8
  %5 = load ptr, ptr %3, align 8
  %6 = getelementptr inbounds %"struct.cxx20::detail::expected_storage_base.19", ptr %5, i32 0, i32 0
  store i8 0, ptr %6, align 2
  %7 = getelementptr inbounds %"struct.cxx20::detail::expected_storage_base.19", ptr %5, i32 0, i32 1
  %8 = load ptr, ptr %4, align 8
  call void @_ZN5cxx2010unexpectedI14__wasi_errno_tEC2IS1_TnPNSt9enable_ifIXaaaa18is_constructible_vIS1_T_EntL_ZSt9is_same_vIS1_St10in_place_tEEntL_ZS6_IS1_S2_EEEvE4typeELPv0ELb1EEEOS5_(ptr noundef nonnull align 2 dereferenceable(2) %7, ptr noundef nonnull align 2 dereferenceable(2) %8) #14
  ret void
}

; Function Attrs: mustprogress nounwind uwtable
define linkonce_odr hidden void @_ZN5cxx206detail21expected_storage_baseIv14__wasi_errno_tLb0ELb1EEC2Ev(ptr noundef nonnull align 2 dereferenceable(4) %0) unnamed_addr #0 comdat align 2 {
  %2 = alloca ptr, align 8
  store ptr %0, ptr %2, align 8
  %3 = load ptr, ptr %2, align 8
  %4 = getelementptr inbounds %"struct.cxx20::detail::expected_storage_base.19", ptr %3, i32 0, i32 0
  store i8 1, ptr %4, align 2
  %5 = getelementptr inbounds %"struct.cxx20::detail::expected_storage_base.19", ptr %3, i32 0, i32 1
  store i8 0, ptr %5, align 2
  ret void
}

; Function Attrs: mustprogress nounwind uwtable
define linkonce_odr hidden void @_ZN5cxx206detail18expected_view_baseIv14__wasi_errno_tECI2NS0_21expected_storage_baseIvS2_Lb0ELb1EEEIJS2_ETnPNSt9enable_ifIX18is_constructible_vIS2_DpT_EEvE4typeELPv0ELb1EEENS_10unexpect_tEDpOS6_(ptr noundef nonnull align 2 dereferenceable(4) %0, ptr noundef nonnull align 2 dereferenceable(2) %1) unnamed_addr #0 comdat align 2 {
  %3 = alloca ptr, align 8
  %4 = alloca ptr, align 8
  store ptr %0, ptr %3, align 8
  store ptr %1, ptr %4, align 8
  %5 = load ptr, ptr %3, align 8
  %6 = load ptr, ptr %4, align 8
  call void @_ZN5cxx206detail21expected_storage_baseIv14__wasi_errno_tLb0ELb1EEC2IJS2_ETnPNSt9enable_ifIX18is_constructible_vIS2_DpT_EEvE4typeELPv0ELb1EEENS_10unexpect_tEDpOS6_(ptr noundef nonnull align 2 dereferenceable(4) %5, ptr noundef nonnull align 2 dereferenceable(2) %6) #14
  ret void
}

; Function Attrs: mustprogress nounwind uwtable
define linkonce_odr hidden void @_ZN5cxx206detail18expected_view_baseIv14__wasi_errno_tEC2Ev(ptr noundef nonnull align 2 dereferenceable(4) %0) unnamed_addr #0 comdat align 2 {
  %2 = alloca ptr, align 8
  store ptr %0, ptr %2, align 8
  %3 = load ptr, ptr %2, align 8
  call void @_ZN5cxx206detail21expected_storage_baseIv14__wasi_errno_tLb0ELb1EEC2Ev(ptr noundef nonnull align 2 dereferenceable(4) %3) #14
  ret void
}

; Function Attrs: mustprogress nounwind uwtable
define linkonce_odr hidden void @_ZN5cxx206detail24expected_operations_baseIv14__wasi_errno_tECI2NS0_21expected_storage_baseIvS2_Lb0ELb1EEEIJS2_ETnPNSt9enable_ifIX18is_constructible_vIS2_DpT_EEvE4typeELPv0ELb1EEENS_10unexpect_tEDpOS6_(ptr noundef nonnull align 2 dereferenceable(4) %0, ptr noundef nonnull align 2 dereferenceable(2) %1) unnamed_addr #0 comdat align 2 {
  %3 = alloca ptr, align 8
  %4 = alloca ptr, align 8
  store ptr %0, ptr %3, align 8
  store ptr %1, ptr %4, align 8
  %5 = load ptr, ptr %3, align 8
  %6 = load ptr, ptr %4, align 8
  call void @_ZN5cxx206detail18expected_view_baseIv14__wasi_errno_tECI2NS0_21expected_storage_baseIvS2_Lb0ELb1EEEIJS2_ETnPNSt9enable_ifIX18is_constructible_vIS2_DpT_EEvE4typeELPv0ELb1EEENS_10unexpect_tEDpOS6_(ptr noundef nonnull align 2 dereferenceable(4) %5, ptr noundef nonnull align 2 dereferenceable(2) %6) #14
  ret void
}

; Function Attrs: mustprogress nounwind uwtable
define linkonce_odr hidden void @_ZN5cxx206detail24expected_operations_baseIv14__wasi_errno_tEC2Ev(ptr noundef nonnull align 2 dereferenceable(4) %0) unnamed_addr #0 comdat align 2 {
  %2 = alloca ptr, align 8
  store ptr %0, ptr %2, align 8
  %3 = load ptr, ptr %2, align 8
  call void @_ZN5cxx206detail18expected_view_baseIv14__wasi_errno_tEC2Ev(ptr noundef nonnull align 2 dereferenceable(4) %3) #14
  ret void
}

; Function Attrs: mustprogress nounwind uwtable
define linkonce_odr hidden void @_ZN5cxx206detail18expected_copy_baseIv14__wasi_errno_tLb1EECI2NS0_21expected_storage_baseIvS2_Lb0ELb1EEEIJS2_ETnPNSt9enable_ifIX18is_constructible_vIS2_DpT_EEvE4typeELPv0ELb1EEENS_10unexpect_tEDpOS6_(ptr noundef nonnull align 2 dereferenceable(4) %0, ptr noundef nonnull align 2 dereferenceable(2) %1) unnamed_addr #0 comdat align 2 {
  %3 = alloca ptr, align 8
  %4 = alloca ptr, align 8
  store ptr %0, ptr %3, align 8
  store ptr %1, ptr %4, align 8
  %5 = load ptr, ptr %3, align 8
  %6 = load ptr, ptr %4, align 8
  call void @_ZN5cxx206detail24expected_operations_baseIv14__wasi_errno_tECI2NS0_21expected_storage_baseIvS2_Lb0ELb1EEEIJS2_ETnPNSt9enable_ifIX18is_constructible_vIS2_DpT_EEvE4typeELPv0ELb1EEENS_10unexpect_tEDpOS6_(ptr noundef nonnull align 2 dereferenceable(4) %5, ptr noundef nonnull align 2 dereferenceable(2) %6) #14
  ret void
}

; Function Attrs: mustprogress nounwind uwtable
define linkonce_odr hidden void @_ZN5cxx206detail18expected_copy_baseIv14__wasi_errno_tLb1EEC2Ev(ptr noundef nonnull align 2 dereferenceable(4) %0) unnamed_addr #0 comdat align 2 {
  %2 = alloca ptr, align 8
  store ptr %0, ptr %2, align 8
  %3 = load ptr, ptr %2, align 8
  call void @_ZN5cxx206detail24expected_operations_baseIv14__wasi_errno_tEC2Ev(ptr noundef nonnull align 2 dereferenceable(4) %3) #14
  ret void
}

; Function Attrs: mustprogress nounwind uwtable
define linkonce_odr hidden void @_ZN5cxx206detail18expected_move_baseIv14__wasi_errno_tLb1EECI2NS0_21expected_storage_baseIvS2_Lb0ELb1EEEIJS2_ETnPNSt9enable_ifIX18is_constructible_vIS2_DpT_EEvE4typeELPv0ELb1EEENS_10unexpect_tEDpOS6_(ptr noundef nonnull align 2 dereferenceable(4) %0, ptr noundef nonnull align 2 dereferenceable(2) %1) unnamed_addr #0 comdat align 2 {
  %3 = alloca ptr, align 8
  %4 = alloca ptr, align 8
  store ptr %0, ptr %3, align 8
  store ptr %1, ptr %4, align 8
  %5 = load ptr, ptr %3, align 8
  %6 = load ptr, ptr %4, align 8
  call void @_ZN5cxx206detail18expected_copy_baseIv14__wasi_errno_tLb1EECI2NS0_21expected_storage_baseIvS2_Lb0ELb1EEEIJS2_ETnPNSt9enable_ifIX18is_constructible_vIS2_DpT_EEvE4typeELPv0ELb1EEENS_10unexpect_tEDpOS6_(ptr noundef nonnull align 2 dereferenceable(4) %5, ptr noundef nonnull align 2 dereferenceable(2) %6) #14
  ret void
}

; Function Attrs: mustprogress nounwind uwtable
define linkonce_odr hidden void @_ZN5cxx206detail18expected_move_baseIv14__wasi_errno_tLb1EEC2Ev(ptr noundef nonnull align 2 dereferenceable(4) %0) unnamed_addr #0 comdat align 2 {
  %2 = alloca ptr, align 8
  store ptr %0, ptr %2, align 8
  %3 = load ptr, ptr %2, align 8
  call void @_ZN5cxx206detail18expected_copy_baseIv14__wasi_errno_tLb1EEC2Ev(ptr noundef nonnull align 2 dereferenceable(4) %3) #14
  ret void
}

; Function Attrs: mustprogress nounwind uwtable
define linkonce_odr hidden void @_ZN5cxx206detail25expected_copy_assign_baseIv14__wasi_errno_tLb1EECI2NS0_21expected_storage_baseIvS2_Lb0ELb1EEEIJS2_ETnPNSt9enable_ifIX18is_constructible_vIS2_DpT_EEvE4typeELPv0ELb1EEENS_10unexpect_tEDpOS6_(ptr noundef nonnull align 2 dereferenceable(4) %0, ptr noundef nonnull align 2 dereferenceable(2) %1) unnamed_addr #0 comdat align 2 {
  %3 = alloca ptr, align 8
  %4 = alloca ptr, align 8
  store ptr %0, ptr %3, align 8
  store ptr %1, ptr %4, align 8
  %5 = load ptr, ptr %3, align 8
  %6 = load ptr, ptr %4, align 8
  call void @_ZN5cxx206detail18expected_move_baseIv14__wasi_errno_tLb1EECI2NS0_21expected_storage_baseIvS2_Lb0ELb1EEEIJS2_ETnPNSt9enable_ifIX18is_constructible_vIS2_DpT_EEvE4typeELPv0ELb1EEENS_10unexpect_tEDpOS6_(ptr noundef nonnull align 2 dereferenceable(4) %5, ptr noundef nonnull align 2 dereferenceable(2) %6) #14
  ret void
}

; Function Attrs: mustprogress nounwind uwtable
define linkonce_odr hidden void @_ZN5cxx206detail25expected_copy_assign_baseIv14__wasi_errno_tLb1EEC2Ev(ptr noundef nonnull align 2 dereferenceable(4) %0) unnamed_addr #0 comdat align 2 {
  %2 = alloca ptr, align 8
  store ptr %0, ptr %2, align 8
  %3 = load ptr, ptr %2, align 8
  call void @_ZN5cxx206detail18expected_move_baseIv14__wasi_errno_tLb1EEC2Ev(ptr noundef nonnull align 2 dereferenceable(4) %3) #14
  ret void
}

; Function Attrs: mustprogress nounwind uwtable
define linkonce_odr hidden void @_ZN5cxx206detail26expected_default_ctor_baseIv14__wasi_errno_tLb1EEC2ESt10in_place_t(ptr noundef nonnull align 1 dereferenceable(1) %0) unnamed_addr #0 comdat align 2 {
  %2 = alloca ptr, align 8
  store ptr %0, ptr %2, align 8
  ret void
}

; Function Attrs: mustprogress nounwind uwtable
define linkonce_odr hidden void @_ZN5cxx206detail25expected_move_assign_baseIv14__wasi_errno_tLb1EECI2NS0_21expected_storage_baseIvS2_Lb0ELb1EEEIJS2_ETnPNSt9enable_ifIX18is_constructible_vIS2_DpT_EEvE4typeELPv0ELb1EEENS_10unexpect_tEDpOS6_(ptr noundef nonnull align 2 dereferenceable(4) %0, ptr noundef nonnull align 2 dereferenceable(2) %1) unnamed_addr #0 comdat align 2 {
  %3 = alloca ptr, align 8
  %4 = alloca ptr, align 8
  store ptr %0, ptr %3, align 8
  store ptr %1, ptr %4, align 8
  %5 = load ptr, ptr %3, align 8
  %6 = load ptr, ptr %4, align 8
  call void @_ZN5cxx206detail25expected_copy_assign_baseIv14__wasi_errno_tLb1EECI2NS0_21expected_storage_baseIvS2_Lb0ELb1EEEIJS2_ETnPNSt9enable_ifIX18is_constructible_vIS2_DpT_EEvE4typeELPv0ELb1EEENS_10unexpect_tEDpOS6_(ptr noundef nonnull align 2 dereferenceable(4) %5, ptr noundef nonnull align 2 dereferenceable(2) %6) #14
  ret void
}

; Function Attrs: mustprogress nounwind uwtable
define linkonce_odr hidden void @_ZN5cxx206detail25expected_move_assign_baseIv14__wasi_errno_tLb1EEC2Ev(ptr noundef nonnull align 2 dereferenceable(4) %0) unnamed_addr #0 comdat align 2 {
  %2 = alloca ptr, align 8
  store ptr %0, ptr %2, align 8
  %3 = load ptr, ptr %2, align 8
  call void @_ZN5cxx206detail25expected_copy_assign_baseIv14__wasi_errno_tLb1EEC2Ev(ptr noundef nonnull align 2 dereferenceable(4) %3) #14
  ret void
}

; Function Attrs: mustprogress nounwind uwtable
define linkonce_odr hidden void @_ZN5cxx208expectedIv14__wasi_errno_tEC2IJS1_ETnPNSt9enable_ifIX18is_constructible_vIS1_DpT_EEvE4typeELPv0ELb1EEENS_10unexpect_tEDpOS5_(ptr noundef nonnull align 2 dereferenceable(4) %0, ptr noundef nonnull align 2 dereferenceable(2) %1) unnamed_addr #0 comdat align 2 personality ptr @__gxx_personality_v0 {
  %3 = alloca ptr, align 8
  %4 = alloca ptr, align 8
  store ptr %0, ptr %3, align 8
  store ptr %1, ptr %4, align 8
  %5 = load ptr, ptr %3, align 8
  %6 = load ptr, ptr %4, align 8
  call void @_ZN5cxx206detail25expected_move_assign_baseIv14__wasi_errno_tLb1EECI2NS0_21expected_storage_baseIvS2_Lb0ELb1EEEIJS2_ETnPNSt9enable_ifIX18is_constructible_vIS2_DpT_EEvE4typeELPv0ELb1EEENS_10unexpect_tEDpOS6_(ptr noundef nonnull align 2 dereferenceable(4) %5, ptr noundef nonnull align 2 dereferenceable(2) %6) #14
  invoke void @_ZN5cxx206detail26expected_default_ctor_baseIv14__wasi_errno_tLb1EEC2ESt10in_place_t(ptr noundef nonnull align 1 dereferenceable(1) %5)
          to label %7 unwind label %8

7:                                                ; preds = %2
  ret void

8:                                                ; preds = %2
  %9 = landingpad { ptr, i32 }
          catch ptr null
  %10 = extractvalue { ptr, i32 } %9, 0
  call void @__clang_call_terminate(ptr %10) #15
  unreachable
}

; Function Attrs: mustprogress nounwind uwtable
define linkonce_odr hidden noundef nonnull align 2 dereferenceable(2) ptr @_ZNR5cxx2010unexpectedI14__wasi_errno_tE5valueEv(ptr noundef nonnull align 2 dereferenceable(2) %0) #0 comdat align 2 {
  %2 = alloca ptr, align 8
  store ptr %0, ptr %2, align 8
  %3 = load ptr, ptr %2, align 8
  %4 = getelementptr inbounds %"class.cxx20::unexpected", ptr %3, i32 0, i32 0
  ret ptr %4
}

; Function Attrs: mustprogress nounwind uwtable
define linkonce_odr hidden void @_ZN5cxx2010unexpectedI14__wasi_errno_tEC2IRS1_TnPNSt9enable_ifIXaaaa18is_constructible_vIS1_T_EntL_ZSt9is_same_vIS1_St10in_place_tEEntL_ZS7_IS1_S2_EEEvE4typeELPv0ELb1EEEOS6_(ptr noundef nonnull align 2 dereferenceable(2) %0, ptr noundef nonnull align 2 dereferenceable(2) %1) unnamed_addr #0 comdat align 2 {
  %3 = alloca ptr, align 8
  %4 = alloca ptr, align 8
  store ptr %0, ptr %3, align 8
  store ptr %1, ptr %4, align 8
  %5 = load ptr, ptr %3, align 8
  %6 = getelementptr inbounds %"class.cxx20::unexpected", ptr %5, i32 0, i32 0
  %7 = load ptr, ptr %4, align 8
  %8 = load i16, ptr %7, align 2
  store i16 %8, ptr %6, align 2
  ret void
}

; Function Attrs: noreturn nounwind uwtable
define linkonce_odr hidden void @__clang_call_terminate(ptr noundef %0) #2 comdat {
  %2 = call ptr @__cxa_begin_catch(ptr %0) #14
  call void @_ZSt9terminatev() #15
  unreachable
}

; Function Attrs: mustprogress nounwind uwtable
define linkonce_odr hidden void @_ZN5cxx208expectedIv14__wasi_errno_tEC2Ev(ptr noundef nonnull align 2 dereferenceable(4) %0) unnamed_addr #0 comdat align 2 {
  %2 = alloca ptr, align 8
  store ptr %0, ptr %2, align 8
  %3 = load ptr, ptr %2, align 8
  call void @_ZN5cxx206detail25expected_move_assign_baseIv14__wasi_errno_tLb1EEC2Ev(ptr noundef nonnull align 2 dereferenceable(4) %3) #14
  ret void
}

; Function Attrs: mustprogress nounwind uwtable
define linkonce_odr hidden void @_ZN5cxx208expectedIv14__wasi_errno_tEC2IS1_TnPNSt9enable_ifIX18is_constructible_vIS1_OT_EEvE4typeELPv0EEEONS_10unexpectedIS5_EE(ptr noundef nonnull align 2 dereferenceable(4) %0, ptr noundef nonnull align 2 dereferenceable(2) %1) unnamed_addr #0 comdat align 2 {
  %3 = alloca ptr, align 8
  %4 = alloca ptr, align 8
  store ptr %0, ptr %3, align 8
  store ptr %1, ptr %4, align 8
  %5 = load ptr, ptr %3, align 8
  %6 = load ptr, ptr %4, align 8
  %7 = call noundef nonnull align 2 dereferenceable(2) ptr @_ZNR5cxx2010unexpectedI14__wasi_errno_tE5valueEv(ptr noundef nonnull align 2 dereferenceable(2) %6) #14
  call void @_ZN5cxx208expectedIv14__wasi_errno_tEC2IJS1_ETnPNSt9enable_ifIX18is_constructible_vIS1_DpT_EEvE4typeELPv0ELb1EEENS_10unexpect_tEDpOS5_(ptr noundef nonnull align 2 dereferenceable(4) %5, ptr noundef nonnull align 2 dereferenceable(2) %7) #14
  ret void
}

; Function Attrs: mustprogress nounwind uwtable
define linkonce_odr hidden i16 @_ZN8WasmEdge4Host4WASI12WasiUnexpectE14__wasi_errno_t(i16 noundef zeroext %0) #0 comdat {
  %2 = alloca %"class.cxx20::unexpected", align 2
  %3 = alloca i16, align 2
  store i16 %0, ptr %3, align 2
  call void @_ZN5cxx2010unexpectedI14__wasi_errno_tEC2IRS1_TnPNSt9enable_ifIXaaaa18is_constructible_vIS1_T_EntL_ZSt9is_same_vIS1_St10in_place_tEEntL_ZS7_IS1_S2_EEEvE4typeELPv0ELb1EEEOS6_(ptr noundef nonnull align 2 dereferenceable(2) %2, ptr noundef nonnull align 2 dereferenceable(2) %3) #14
  %4 = getelementptr inbounds %"class.cxx20::unexpected", ptr %2, i32 0, i32 0
  %5 = load i16, ptr %4, align 2
  ret i16 %5
}

; Function Attrs: mustprogress nounwind uwtable
define internal noundef zeroext i1 @_ZN8WasmEdgeL8unlikelyEb(i1 noundef zeroext %0) #0 {
  %2 = alloca i8, align 1
  %3 = zext i1 %0 to i8
  store i8 %3, ptr %2, align 1
  %4 = load i8, ptr %2, align 1
  %5 = trunc i8 %4 to i1
  ret i1 %5
}

; Function Attrs: mustprogress nounwind uwtable
define i32 @_ZNK8WasmEdge4Host4WASI5INode17fdFilestatSetSizeEm(ptr noundef nonnull align 8 dereferenceable(200) %0, i64 noundef %1) #0 align 2 personality ptr @__gxx_personality_v0 {
  %3 = alloca %"class.cxx20::expected.12", align 2
  %4 = alloca ptr, align 8
  %5 = alloca i64, align 8
  %6 = alloca i32, align 4
  %7 = alloca %"class.cxx20::unexpected", align 2
  store ptr %0, ptr %4, align 8
  store i64 %1, ptr %5, align 8
  %8 = load ptr, ptr %4, align 8
  %9 = getelementptr inbounds %"struct.WasmEdge::Host::WASI::FdHolder", ptr %8, i32 0, i32 0
  %10 = load i32, ptr %9, align 8
  %11 = load i64, ptr %5, align 8
  %12 = call i32 @ftruncate(i32 noundef %10, i64 noundef %11) #14
  store i32 %12, ptr %6, align 4
  %13 = load i32, ptr %6, align 4
  %14 = icmp eq i32 %13, -1
  %15 = call noundef zeroext i1 @_ZN8WasmEdgeL8unlikelyEb(i1 noundef zeroext %14) #14
  br i1 %15, label %16, label %24

16:                                               ; preds = %2
  %17 = call ptr @__errno_location() #16
  %18 = load i32, ptr %17, align 4
  %19 = call noundef zeroext i16 @_ZN8WasmEdge4Host4WASI6detail9fromErrNoEi(i32 noundef %18) #14
  %20 = invoke i16 @_ZN8WasmEdge4Host4WASI12WasiUnexpectE14__wasi_errno_t(i16 noundef zeroext %19)
          to label %21 unwind label %34

21:                                               ; preds = %16
  %22 = getelementptr inbounds %"class.cxx20::unexpected", ptr %7, i32 0, i32 0
  store i16 %20, ptr %22, align 2
  invoke void @_ZN5cxx208expectedIv14__wasi_errno_tEC2IS1_TnPNSt9enable_ifIX18is_constructible_vIS1_OT_EEvE4typeELPv0EEEONS_10unexpectedIS5_EE(ptr noundef nonnull align 2 dereferenceable(4) %3, ptr noundef nonnull align 2 dereferenceable(2) %7)
          to label %23 unwind label %34

23:                                               ; preds = %21
  br label %25

24:                                               ; preds = %2
  call void @llvm.memset.p0.i64(ptr align 2 %3, i8 0, i64 4, i1 false)
  call void @_ZN5cxx208expectedIv14__wasi_errno_tEC2Ev(ptr noundef nonnull align 2 dereferenceable(4) %3) #14
  br label %25

25:                                               ; preds = %24, %23
  %26 = getelementptr inbounds %"class.cxx20::expected.12", ptr %3, i32 0, i32 0
  %27 = getelementptr inbounds %"struct.cxx20::detail::expected_move_assign_base.13", ptr %26, i32 0, i32 0
  %28 = getelementptr inbounds %"struct.cxx20::detail::expected_copy_assign_base.14", ptr %27, i32 0, i32 0
  %29 = getelementptr inbounds %"struct.cxx20::detail::expected_move_base.15", ptr %28, i32 0, i32 0
  %30 = getelementptr inbounds %"struct.cxx20::detail::expected_copy_base.16", ptr %29, i32 0, i32 0
  %31 = getelementptr inbounds %"struct.cxx20::detail::expected_operations_base.17", ptr %30, i32 0, i32 0
  %32 = getelementptr inbounds %"struct.cxx20::detail::expected_view_base.18", ptr %31, i32 0, i32 0
  %33 = load i32, ptr %32, align 2
  ret i32 %33

34:                                               ; preds = %21, %16
  %35 = landingpad { ptr, i32 }
          catch ptr null
  %36 = extractvalue { ptr, i32 } %35, 0
  call void @__clang_call_terminate(ptr %36) #15
  unreachable
}