; Function Attrs: mustprogress nounwind uwtable
define range(i32 0, -65535) i32 @_ZNK8WasmEdge4Host4WASI5INode17fdFilestatSetSizeEm(ptr noundef nonnull readonly align 8 captures(none) dereferenceable(200) %0, i64 noundef %1) local_unnamed_addr #0 align 2 personality ptr @__gxx_personality_v0 {
  %3 = load i32, ptr %0, align 8
  %4 = tail call i32 @ftruncate(i32 noundef %3, i64 noundef %1) #24
  %5 = icmp eq i32 %4, -1
  br i1 %5, label %6, label %12

6:                                                ; preds = %2
  %7 = tail call ptr @__errno_location() #25
  %8 = load i32, ptr %7, align 4
  %9 = tail call noundef zeroext i16 @_ZN8WasmEdge4Host4WASI6detail9fromErrNoEi(i32 noundef %8) #24
  %10 = zext i16 %9 to i32
  %11 = shl nuw i32 %10, 16
  br label %12

12:                                               ; preds = %2, %6
  %.sroa.02.0.insert.insert = phi i32 [ %11, %6 ], [ 1, %2 ]
  ret i32 %.sroa.02.0.insert.insert
}